target datalayout = "e-m:e-p270:32:32-p271:32:32-p272:64:64-i64:64-i128:128-f80:128-n8:16:32:64-S128"
target triple = "x86_64-pc-linux-gnu"

%"class.Ipopt::PardisoSolverInterface" = type <{ %"class.Ipopt::SparseSymLinearSolverInterface.base", [3 x i8], i32, i32, [4 x i8], ptr, i32, i32, i8, i8, i8, i8, i8, [3 x i8], i32, i8, [3 x i8], ptr, i32, i32, i32, [4 x i8], ptr, ptr, i32, i32, i32, [4 x i8], %"class.Ipopt::SmartPtr", ptr, ptr, i8, [7 x i8] }>
%"class.Ipopt::SparseSymLinearSolverInterface.base" = type { %"class.Ipopt::AlgorithmStrategyObject.base" }
%"class.Ipopt::AlgorithmStrategyObject.base" = type <{ %"class.Ipopt::ReferencedObject.base", [4 x i8], %"class.Ipopt::SmartPtr.0", %"class.Ipopt::SmartPtr.1", %"class.Ipopt::SmartPtr.2", %"class.Ipopt::SmartPtr.3", i8 }>
%"class.Ipopt::ReferencedObject.base" = type <{ ptr, i32 }>
%"class.Ipopt::SmartPtr.0" = type { ptr }
%"class.Ipopt::SmartPtr.1" = type { ptr }
%"class.Ipopt::SmartPtr.2" = type { ptr }
%"class.Ipopt::SmartPtr.3" = type { ptr }
%"class.Ipopt::SmartPtr" = type { ptr }
%"class.Ipopt::ReferencedObject" = type <{ ptr, i32, [4 x i8] }>

; Function Attrs: mustprogress nounwind uwtable
define linkonce_odr noundef i32 @_ZNK5Ipopt16ReferencedObject14ReferenceCountEv(ptr noundef nonnull align 8 dereferenceable(12) %0) #6 comdat align 2 {
  %2 = alloca ptr, align 8
  store ptr %0, ptr %2, align 8
  %3 = load ptr, ptr %2, align 8
  %4 = getelementptr inbounds %"class.Ipopt::ReferencedObject", ptr %3, i32 0, i32 1
  %5 = load i32, ptr %4, align 8
  ret i32 %5
}

; Function Attrs: mustprogress nounwind uwtable
define linkonce_odr void @_ZNK5Ipopt16ReferencedObject10ReleaseRefEPKNS_10ReferencerE(ptr noundef nonnull align 8 dereferenceable(12) %0, ptr noundef %1) #6 comdat align 2 {
  %3 = alloca ptr, align 8
  %4 = alloca ptr, align 8
  store ptr %0, ptr %3, align 8
  store ptr %1, ptr %4, align 8
  %5 = load ptr, ptr %3, align 8
  %6 = getelementptr inbounds %"class.Ipopt::ReferencedObject", ptr %5, i32 0, i32 1
  %7 = load i32, ptr %6, align 8
  %8 = add nsw i32 %7, -1
  store i32 %8, ptr %6, align 8
  ret void
}

; Function Attrs: mustprogress nounwind uwtable
define linkonce_odr void @_ZN5Ipopt8SmartPtrINS_13LibraryLoaderEE15ReleasePointer_Ev(ptr noundef nonnull align 8 dereferenceable(8) %0) #6 comdat align 2 {
  %2 = alloca ptr, align 8
  store ptr %0, ptr %2, align 8
  %3 = load ptr, ptr %2, align 8
  %4 = getelementptr inbounds %"class.Ipopt::SmartPtr", ptr %3, i32 0, i32 0
  %5 = load ptr, ptr %4, align 8
  %6 = icmp ne ptr %5, null
  br i1 %6, label %7, label %24

7:                                                ; preds = %1
  %8 = getelementptr inbounds %"class.Ipopt::SmartPtr", ptr %3, i32 0, i32 0
  %9 = load ptr, ptr %8, align 8
  call void @_ZNK5Ipopt16ReferencedObject10ReleaseRefEPKNS_10ReferencerE(ptr noundef nonnull align 8 dereferenceable(12) %9, ptr noundef %3)
  %10 = getelementptr inbounds %"class.Ipopt::SmartPtr", ptr %3, i32 0, i32 0
  %11 = load ptr, ptr %10, align 8
  %12 = call noundef i32 @_ZNK5Ipopt16ReferencedObject14ReferenceCountEv(ptr noundef nonnull align 8 dereferenceable(12) %11)
  %13 = icmp eq i32 %12, 0
  br i1 %13, label %14, label %23

14:                                               ; preds = %7
  %15 = getelementptr inbounds %"class.Ipopt::SmartPtr", ptr %3, i32 0, i32 0
  %16 = load ptr, ptr %15, align 8
  %17 = icmp eq ptr %16, null
  br i1 %17, label %22, label %18

18:                                               ; preds = %14
  %19 = load ptr, ptr %16, align 8
  %20 = getelementptr inbounds ptr, ptr %19, i64 1
  %21 = load ptr, ptr %20, align 8
  call void %21(ptr noundef nonnull align 8 dereferenceable(56) %16) #3
  br label %22

22:                                               ; preds = %18, %14
  br label %23

23:                                               ; preds = %22, %7
  br label %24

24:                                               ; preds = %23, %1
  ret void
}

; Function Attrs: mustprogress nounwind uwtable
define linkonce_odr void @_ZN5Ipopt30SparseSymLinearSolverInterfaceD2Ev(ptr noundef nonnull align 8 dereferenceable(49) %0) unnamed_addr #6 comdat align 2 {
  %2 = alloca ptr, align 8
  store ptr %0, ptr %2, align 8
  %3 = load ptr, ptr %2, align 8
  call void @_ZN5Ipopt23AlgorithmStrategyObjectD2Ev(ptr noundef nonnull align 8 dereferenceable(49) %3) #3
  ret void
}

; Function Attrs: mustprogress nounwind uwtable
define linkonce_odr void @_ZN5Ipopt8SmartPtrINS_13LibraryLoaderEED2Ev(ptr noundef nonnull align 8 dereferenceable(8) %0) unnamed_addr #6 comdat align 2 {
  %2 = alloca ptr, align 8
  store ptr %0, ptr %2, align 8
  %3 = load ptr, ptr %2, align 8
  call void @_ZN5Ipopt8SmartPtrINS_13LibraryLoaderEE15ReleasePointer_Ev(ptr noundef nonnull align 8 dereferenceable(8) %3)
  ret void
}

; Function Attrs: mustprogress nounwind uwtable
define void @_ZN5Ipopt22PardisoSolverInterfaceD2Ev(ptr noundef nonnull align 8 dereferenceable(177) %0) unnamed_addr #6 align 2 personality ptr @__gxx_personality_v0 {
  %2 = alloca ptr, align 8
  %3 = alloca i32, align 4
  %4 = alloca i32, align 4
  %5 = alloca i32, align 4
  %6 = alloca i32, align 4
  %7 = alloca i32, align 4
  %8 = alloca double, align 8
  store ptr %0, ptr %2, align 8
  %9 = load ptr, ptr %2, align 8
  store ptr getelementptr inbounds ({ [14 x ptr] }, ptr @_ZTVN5Ipopt22PardisoSolverInterfaceE, i32 0, i32 0, i32 2), ptr %9, align 8
  %10 = getelementptr inbounds %"class.Ipopt::PardisoSolverInterface", ptr %9, i32 0, i32 15
  %11 = load i8, ptr %10, align 4
  %12 = trunc i8 %11 to i1
  br i1 %12, label %13, label %29

13:                                               ; preds = %1
  store i32 -1, ptr %3, align 4
  %14 = getelementptr inbounds %"class.Ipopt::PardisoSolverInterface", ptr %9, i32 0, i32 2
  %15 = load i32, ptr %14, align 4
  store i32 %15, ptr %4, align 4
  store i32 0, ptr %5, align 4
  store i32 0, ptr %7, align 4
  store double 0.000000e+00, ptr %8, align 8
  %16 = getelementptr inbounds %"class.Ipopt::PardisoSolverInterface", ptr %9, i32 0, i32 30
  %17 = load ptr, ptr %16, align 8
  %18 = getelementptr inbounds %"class.Ipopt::PardisoSolverInterface", ptr %9, i32 0, i32 17
  %19 = load ptr, ptr %18, align 8
  %20 = getelementptr inbounds %"class.Ipopt::PardisoSolverInterface", ptr %9, i32 0, i32 18
  %21 = getelementptr inbounds %"class.Ipopt::PardisoSolverInterface", ptr %9, i32 0, i32 19
  %22 = getelementptr inbounds %"class.Ipopt::PardisoSolverInterface", ptr %9, i32 0, i32 20
  %23 = getelementptr inbounds %"class.Ipopt::PardisoSolverInterface", ptr %9, i32 0, i32 22
  %24 = load ptr, ptr %23, align 8
  %25 = getelementptr inbounds %"class.Ipopt::PardisoSolverInterface", ptr %9, i32 0, i32 24
  %26 = getelementptr inbounds %"class.Ipopt::PardisoSolverInterface", ptr %9, i32 0, i32 23
  %27 = load ptr, ptr %26, align 8
  invoke void %17(ptr noundef %19, ptr noundef %20, ptr noundef %21, ptr noundef %22, ptr noundef %3, ptr noundef %4, ptr noundef %8, ptr noundef %7, ptr noundef %7, ptr noundef %7, ptr noundef %5, ptr noundef %24, ptr noundef %25, ptr noundef %8, ptr noundef %8, ptr noundef %6, ptr noundef %27)
          to label %28 unwind label %51

28:                                               ; preds = %13
  br label %29

29:                                               ; preds = %28, %1
  %30 = getelementptr inbounds %"class.Ipopt::PardisoSolverInterface", ptr %9, i32 0, i32 17
  %31 = load ptr, ptr %30, align 8
  %32 = icmp eq ptr %31, null
  br i1 %32, label %34, label %33

33:                                               ; preds = %29
  call void @_ZdaPv(ptr noundef %31) #15
  br label %34

34:                                               ; preds = %33, %29
  %35 = getelementptr inbounds %"class.Ipopt::PardisoSolverInterface", ptr %9, i32 0, i32 22
  %36 = load ptr, ptr %35, align 8
  %37 = icmp eq ptr %36, null
  br i1 %37, label %39, label %38

38:                                               ; preds = %34
  call void @_ZdaPv(ptr noundef %36) #15
  br label %39

39:                                               ; preds = %38, %34
  %40 = getelementptr inbounds %"class.Ipopt::PardisoSolverInterface", ptr %9, i32 0, i32 23
  %41 = load ptr, ptr %40, align 8
  %42 = icmp eq ptr %41, null
  br i1 %42, label %44, label %43

43:                                               ; preds = %39
  call void @_ZdaPv(ptr noundef %41) #15
  br label %44

44:                                               ; preds = %43, %39
  %45 = getelementptr inbounds %"class.Ipopt::PardisoSolverInterface", ptr %9, i32 0, i32 5
  %46 = load ptr, ptr %45, align 8
  %47 = icmp eq ptr %46, null
  br i1 %47, label %49, label %48

48:                                               ; preds = %44
  call void @_ZdaPv(ptr noundef %46) #15
  br label %49

49:                                               ; preds = %48, %44
  %50 = getelementptr inbounds %"class.Ipopt::PardisoSolverInterface", ptr %9, i32 0, i32 28
  call void @_ZN5Ipopt8SmartPtrINS_13LibraryLoaderEED2Ev(ptr noundef nonnull align 8 dereferenceable(8) %50) #3
  call void @_ZN5Ipopt30SparseSymLinearSolverInterfaceD2Ev(ptr noundef nonnull align 8 dereferenceable(49) %9) #3
  ret void

51:                                               ; preds = %13
  %52 = landingpad { ptr, i32 }
          catch ptr null
  %53 = extractvalue { ptr, i32 } %52, 0
  call void @__clang_call_terminate(ptr %53) #16
  unreachable
}