; Function Attrs: mustprogress nounwind uwtable
define void @_ZN5Ipopt22PardisoSolverInterfaceD2Ev(ptr noundef nonnull align 8 dereferenceable(177) %0) unnamed_addr #5 align 2 personality ptr @__gxx_personality_v0 {
  %2 = alloca i32, align 4
  %3 = alloca i32, align 4
  %4 = alloca i32, align 4
  %5 = alloca i32, align 4
  %6 = alloca i32, align 4
  %7 = alloca double, align 8
  store ptr getelementptr inbounds ({ [14 x ptr] }, ptr @_ZTVN5Ipopt22PardisoSolverInterfaceE, i64 0, i32 0, i64 2), ptr %0, align 8
  %8 = getelementptr inbounds i8, ptr %0, i64 92
  %9 = load i8, ptr %8, align 4
  %10 = and i8 %9, 1
  %.not = icmp eq i8 %10, 0
  br i1 %.not, label %26, label %11

11:                                               ; preds = %1
  store i32 -1, ptr %2, align 4
  %12 = getelementptr inbounds i8, ptr %0, i64 52
  %13 = load i32, ptr %12, align 4
  store i32 %13, ptr %3, align 4
  store i32 0, ptr %4, align 4
  store i32 0, ptr %6, align 4
  store double 0.000000e+00, ptr %7, align 8
  %14 = getelementptr inbounds i8, ptr %0, i64 168
  %15 = load ptr, ptr %14, align 8
  %16 = getelementptr inbounds i8, ptr %0, i64 96
  %17 = load ptr, ptr %16, align 8
  %18 = getelementptr inbounds i8, ptr %0, i64 104
  %19 = getelementptr inbounds i8, ptr %0, i64 108
  %20 = getelementptr inbounds i8, ptr %0, i64 112
  %21 = getelementptr inbounds i8, ptr %0, i64 120
  %22 = load ptr, ptr %21, align 8
  %23 = getelementptr inbounds i8, ptr %0, i64 136
  %24 = getelementptr inbounds i8, ptr %0, i64 128
  %25 = load ptr, ptr %24, align 8
  invoke void %15(ptr noundef %17, ptr noundef nonnull %18, ptr noundef nonnull %19, ptr noundef nonnull %20, ptr noundef nonnull %2, ptr noundef nonnull %3, ptr noundef nonnull %7, ptr noundef nonnull %6, ptr noundef nonnull %6, ptr noundef nonnull %6, ptr noundef nonnull %4, ptr noundef %22, ptr noundef nonnull %23, ptr noundef nonnull %7, ptr noundef nonnull %7, ptr noundef nonnull %5, ptr noundef %25)
          to label %26 unwind label %61

26:                                               ; preds = %11, %1
  %27 = getelementptr inbounds i8, ptr %0, i64 96
  %28 = load ptr, ptr %27, align 8
  %29 = icmp eq ptr %28, null
  br i1 %29, label %31, label %30

30:                                               ; preds = %26
  call void @_ZdaPv(ptr noundef nonnull %28) #26
  br label %31

31:                                               ; preds = %30, %26
  %32 = getelementptr inbounds i8, ptr %0, i64 120
  %33 = load ptr, ptr %32, align 8
  %34 = icmp eq ptr %33, null
  br i1 %34, label %36, label %35

35:                                               ; preds = %31
  call void @_ZdaPv(ptr noundef nonnull %33) #26
  br label %36

36:                                               ; preds = %35, %31
  %37 = getelementptr inbounds i8, ptr %0, i64 128
  %38 = load ptr, ptr %37, align 8
  %39 = icmp eq ptr %38, null
  br i1 %39, label %41, label %40

40:                                               ; preds = %36
  call void @_ZdaPv(ptr noundef nonnull %38) #26
  br label %41

41:                                               ; preds = %40, %36
  %42 = getelementptr inbounds i8, ptr %0, i64 64
  %43 = load ptr, ptr %42, align 8
  %44 = icmp eq ptr %43, null
  br i1 %44, label %46, label %45

45:                                               ; preds = %41
  call void @_ZdaPv(ptr noundef nonnull %43) #26
  br label %46

46:                                               ; preds = %45, %41
  %47 = getelementptr inbounds i8, ptr %0, i64 152
  %48 = load ptr, ptr %47, align 8
  %.not.i.i = icmp eq ptr %48, null
  br i1 %.not.i.i, label %_ZN5Ipopt8SmartPtrINS_13LibraryLoaderEED2Ev.exit, label %49

49:                                               ; preds = %46
  %50 = getelementptr inbounds i8, ptr %48, i64 8
  %51 = load i32, ptr %50, align 8
  %52 = add nsw i32 %51, -1
  store i32 %52, ptr %50, align 8
  %53 = load ptr, ptr %47, align 8
  %54 = getelementptr inbounds i8, ptr %53, i64 8
  %55 = load i32, ptr %54, align 8
  %56 = icmp eq i32 %55, 0
  br i1 %56, label %57, label %_ZN5Ipopt8SmartPtrINS_13LibraryLoaderEED2Ev.exit

57:                                               ; preds = %49
  %58 = load ptr, ptr %53, align 8
  %59 = getelementptr inbounds i8, ptr %58, i64 8
  %60 = load ptr, ptr %59, align 8
  call void %60(ptr noundef nonnull align 8 dereferenceable(56) %53) #24
  br label %_ZN5Ipopt8SmartPtrINS_13LibraryLoaderEED2Ev.exit

_ZN5Ipopt8SmartPtrINS_13LibraryLoaderEED2Ev.exit: ; preds = %46, %49, %57
  call void @_ZN5Ipopt23AlgorithmStrategyObjectD2Ev(ptr noundef nonnull align 8 dereferenceable(49) %0) #24
  ret void

61:                                               ; preds = %11
  %62 = landingpad { ptr, i32 }
          catch ptr null
  %63 = extractvalue { ptr, i32 } %62, 0
  call void @__clang_call_terminate(ptr %63) #27
  unreachable
}